
main.elf:     file format elf32-littlearm


Disassembly of section .isr_vector:

08000000 <vector_table>:
 8000000:	20020000 	andcs	r0, r2, r0
 8000004:	080001bb 	stmdaeq	r0, {r0, r1, r3, r4, r5, r7, r8}
 8000008:	080001b5 	stmdaeq	r0, {r0, r2, r4, r5, r7, r8}
 800000c:	080001b5 	stmdaeq	r0, {r0, r2, r4, r5, r7, r8}
 8000010:	080001b5 	stmdaeq	r0, {r0, r2, r4, r5, r7, r8}
 8000014:	080001b5 	stmdaeq	r0, {r0, r2, r4, r5, r7, r8}
 8000018:	080001b5 	stmdaeq	r0, {r0, r2, r4, r5, r7, r8}
	...
 800002c:	080001b5 	stmdaeq	r0, {r0, r2, r4, r5, r7, r8}
 8000030:	080001b5 	stmdaeq	r0, {r0, r2, r4, r5, r7, r8}
 8000034:	00000000 	andeq	r0, r0, r0
 8000038:	080001b5 	stmdaeq	r0, {r0, r2, r4, r5, r7, r8}
 800003c:	080001b5 	stmdaeq	r0, {r0, r2, r4, r5, r7, r8}
 8000040:	080001b5 	stmdaeq	r0, {r0, r2, r4, r5, r7, r8}
 8000044:	080001b5 	stmdaeq	r0, {r0, r2, r4, r5, r7, r8}
 8000048:	080001b5 	stmdaeq	r0, {r0, r2, r4, r5, r7, r8}
 800004c:	080001b5 	stmdaeq	r0, {r0, r2, r4, r5, r7, r8}
 8000050:	080001b5 	stmdaeq	r0, {r0, r2, r4, r5, r7, r8}
 8000054:	080001b5 	stmdaeq	r0, {r0, r2, r4, r5, r7, r8}
 8000058:	080001b5 	stmdaeq	r0, {r0, r2, r4, r5, r7, r8}
 800005c:	080001b5 	stmdaeq	r0, {r0, r2, r4, r5, r7, r8}
 8000060:	080001b5 	stmdaeq	r0, {r0, r2, r4, r5, r7, r8}
 8000064:	080001b5 	stmdaeq	r0, {r0, r2, r4, r5, r7, r8}
 8000068:	080001b5 	stmdaeq	r0, {r0, r2, r4, r5, r7, r8}
 800006c:	080001b5 	stmdaeq	r0, {r0, r2, r4, r5, r7, r8}
 8000070:	080001b5 	stmdaeq	r0, {r0, r2, r4, r5, r7, r8}
 8000074:	080001b5 	stmdaeq	r0, {r0, r2, r4, r5, r7, r8}
 8000078:	080001b5 	stmdaeq	r0, {r0, r2, r4, r5, r7, r8}
 800007c:	080001b5 	stmdaeq	r0, {r0, r2, r4, r5, r7, r8}
 8000080:	080001b5 	stmdaeq	r0, {r0, r2, r4, r5, r7, r8}
 8000084:	080001b5 	stmdaeq	r0, {r0, r2, r4, r5, r7, r8}
 8000088:	080001b5 	stmdaeq	r0, {r0, r2, r4, r5, r7, r8}
 800008c:	080001b5 	stmdaeq	r0, {r0, r2, r4, r5, r7, r8}
 8000090:	080001b5 	stmdaeq	r0, {r0, r2, r4, r5, r7, r8}
 8000094:	080001b5 	stmdaeq	r0, {r0, r2, r4, r5, r7, r8}
 8000098:	080001b5 	stmdaeq	r0, {r0, r2, r4, r5, r7, r8}
 800009c:	080001b5 	stmdaeq	r0, {r0, r2, r4, r5, r7, r8}
 80000a0:	080001b5 	stmdaeq	r0, {r0, r2, r4, r5, r7, r8}
 80000a4:	080001b5 	stmdaeq	r0, {r0, r2, r4, r5, r7, r8}
 80000a8:	080001b5 	stmdaeq	r0, {r0, r2, r4, r5, r7, r8}
 80000ac:	080001b5 	stmdaeq	r0, {r0, r2, r4, r5, r7, r8}
 80000b0:	080001b5 	stmdaeq	r0, {r0, r2, r4, r5, r7, r8}
 80000b4:	080001b5 	stmdaeq	r0, {r0, r2, r4, r5, r7, r8}
 80000b8:	080001b5 	stmdaeq	r0, {r0, r2, r4, r5, r7, r8}
 80000bc:	080001b5 	stmdaeq	r0, {r0, r2, r4, r5, r7, r8}
 80000c0:	080001b5 	stmdaeq	r0, {r0, r2, r4, r5, r7, r8}
 80000c4:	080001b5 	stmdaeq	r0, {r0, r2, r4, r5, r7, r8}
 80000c8:	080001b5 	stmdaeq	r0, {r0, r2, r4, r5, r7, r8}
 80000cc:	080001b5 	stmdaeq	r0, {r0, r2, r4, r5, r7, r8}
 80000d0:	080001b5 	stmdaeq	r0, {r0, r2, r4, r5, r7, r8}
 80000d4:	080001b5 	stmdaeq	r0, {r0, r2, r4, r5, r7, r8}
 80000d8:	080001b5 	stmdaeq	r0, {r0, r2, r4, r5, r7, r8}
 80000dc:	080001b5 	stmdaeq	r0, {r0, r2, r4, r5, r7, r8}
 80000e0:	080001b5 	stmdaeq	r0, {r0, r2, r4, r5, r7, r8}
 80000e4:	080001b5 	stmdaeq	r0, {r0, r2, r4, r5, r7, r8}
 80000e8:	080001b5 	stmdaeq	r0, {r0, r2, r4, r5, r7, r8}
 80000ec:	080001b5 	stmdaeq	r0, {r0, r2, r4, r5, r7, r8}
 80000f0:	080001b5 	stmdaeq	r0, {r0, r2, r4, r5, r7, r8}
 80000f4:	080001b5 	stmdaeq	r0, {r0, r2, r4, r5, r7, r8}
 80000f8:	080001b5 	stmdaeq	r0, {r0, r2, r4, r5, r7, r8}
 80000fc:	080001b5 	stmdaeq	r0, {r0, r2, r4, r5, r7, r8}
 8000100:	080001b5 	stmdaeq	r0, {r0, r2, r4, r5, r7, r8}
 8000104:	080001b5 	stmdaeq	r0, {r0, r2, r4, r5, r7, r8}
 8000108:	080001b5 	stmdaeq	r0, {r0, r2, r4, r5, r7, r8}
 800010c:	080001b5 	stmdaeq	r0, {r0, r2, r4, r5, r7, r8}
 8000110:	080001b5 	stmdaeq	r0, {r0, r2, r4, r5, r7, r8}
 8000114:	080001b5 	stmdaeq	r0, {r0, r2, r4, r5, r7, r8}
 8000118:	080001b5 	stmdaeq	r0, {r0, r2, r4, r5, r7, r8}
 800011c:	080001b5 	stmdaeq	r0, {r0, r2, r4, r5, r7, r8}
 8000120:	080001b5 	stmdaeq	r0, {r0, r2, r4, r5, r7, r8}
 8000124:	080001b5 	stmdaeq	r0, {r0, r2, r4, r5, r7, r8}
 8000128:	080001b5 	stmdaeq	r0, {r0, r2, r4, r5, r7, r8}
 800012c:	080001b5 	stmdaeq	r0, {r0, r2, r4, r5, r7, r8}
 8000130:	080001b5 	stmdaeq	r0, {r0, r2, r4, r5, r7, r8}
 8000134:	080001b5 	stmdaeq	r0, {r0, r2, r4, r5, r7, r8}
 8000138:	080001b5 	stmdaeq	r0, {r0, r2, r4, r5, r7, r8}
 800013c:	080001b5 	stmdaeq	r0, {r0, r2, r4, r5, r7, r8}
 8000140:	080001b5 	stmdaeq	r0, {r0, r2, r4, r5, r7, r8}
 8000144:	080001b5 	stmdaeq	r0, {r0, r2, r4, r5, r7, r8}
 8000148:	080001b5 	stmdaeq	r0, {r0, r2, r4, r5, r7, r8}
 800014c:	080001b5 	stmdaeq	r0, {r0, r2, r4, r5, r7, r8}
 8000150:	080001b5 	stmdaeq	r0, {r0, r2, r4, r5, r7, r8}
 8000154:	080001b5 	stmdaeq	r0, {r0, r2, r4, r5, r7, r8}
 8000158:	080001b5 	stmdaeq	r0, {r0, r2, r4, r5, r7, r8}
 800015c:	080001b5 	stmdaeq	r0, {r0, r2, r4, r5, r7, r8}
 8000160:	080001b5 	stmdaeq	r0, {r0, r2, r4, r5, r7, r8}
 8000164:	080001b5 	stmdaeq	r0, {r0, r2, r4, r5, r7, r8}
 8000168:	080001b5 	stmdaeq	r0, {r0, r2, r4, r5, r7, r8}
 800016c:	080001b5 	stmdaeq	r0, {r0, r2, r4, r5, r7, r8}
 8000170:	080001b5 	stmdaeq	r0, {r0, r2, r4, r5, r7, r8}
 8000174:	080001b5 	stmdaeq	r0, {r0, r2, r4, r5, r7, r8}
 8000178:	080001b5 	stmdaeq	r0, {r0, r2, r4, r5, r7, r8}
 800017c:	00000000 	andeq	r0, r0, r0
 8000180:	080001b5 	stmdaeq	r0, {r0, r2, r4, r5, r7, r8}
 8000184:	080001b5 	stmdaeq	r0, {r0, r2, r4, r5, r7, r8}

Disassembly of section .text:

08000188 <main>:
 8000188:	b480      	push	{r7}
 800018a:	af00      	add	r7, sp, #0
 800018c:	4b07      	ldr	r3, [pc, #28]	; (80001ac <main+0x24>)
 800018e:	681b      	ldr	r3, [r3, #0]
 8000190:	3301      	adds	r3, #1
 8000192:	4a06      	ldr	r2, [pc, #24]	; (80001ac <main+0x24>)
 8000194:	6013      	str	r3, [r2, #0]
 8000196:	4b06      	ldr	r3, [pc, #24]	; (80001b0 <main+0x28>)
 8000198:	681b      	ldr	r3, [r3, #0]
 800019a:	3301      	adds	r3, #1
 800019c:	4a04      	ldr	r2, [pc, #16]	; (80001b0 <main+0x28>)
 800019e:	6013      	str	r3, [r2, #0]
 80001a0:	2300      	movs	r3, #0
 80001a2:	4618      	mov	r0, r3
 80001a4:	46bd      	mov	sp, r7
 80001a6:	bc80      	pop	{r7}
 80001a8:	4770      	bx	lr
 80001aa:	bf00      	nop
 80001ac:	20000000 	andcs	r0, r0, r0
 80001b0:	20000004 	andcs	r0, r0, r4

080001b4 <Default_Handler>:
 80001b4:	b480      	push	{r7}
 80001b6:	af00      	add	r7, sp, #0
 80001b8:	e7fe      	b.n	80001b8 <Default_Handler+0x4>

080001ba <Reset_Handler>:
 80001ba:	4d0a      	ldr	r5, [pc, #40]	; (80001e4 <Reset_Handler+0x2a>)
 80001bc:	4c0a      	ldr	r4, [pc, #40]	; (80001e8 <Reset_Handler+0x2e>)
 80001be:	e003      	b.n	80001c8 <Reset_Handler+0xe>
 80001c0:	682b      	ldr	r3, [r5, #0]
 80001c2:	6023      	str	r3, [r4, #0]
 80001c4:	3504      	adds	r5, #4
 80001c6:	3404      	adds	r4, #4
 80001c8:	4b08      	ldr	r3, [pc, #32]	; (80001ec <Reset_Handler+0x32>)
 80001ca:	429c      	cmp	r4, r3
 80001cc:	d3f8      	bcc.n	80001c0 <Reset_Handler+0x6>
 80001ce:	4c08      	ldr	r4, [pc, #32]	; (80001f0 <Reset_Handler+0x36>)
 80001d0:	e002      	b.n	80001d8 <Reset_Handler+0x1e>
 80001d2:	2300      	movs	r3, #0
 80001d4:	6023      	str	r3, [r4, #0]
 80001d6:	3404      	adds	r4, #4
 80001d8:	4b06      	ldr	r3, [pc, #24]	; (80001f4 <Reset_Handler+0x3a>)
 80001da:	429c      	cmp	r4, r3
 80001dc:	d3f9      	bcc.n	80001d2 <Reset_Handler+0x18>
 80001de:	f7ff ffd3 	bl	8000188 <main>
 80001e2:	e7fe      	b.n	80001e2 <Reset_Handler+0x28>
 80001e4:	080001f8 	stmdaeq	r0, {r3, r4, r5, r6, r7, r8}
 80001e8:	20000000 	andcs	r0, r0, r0
 80001ec:	20000004 	andcs	r0, r0, r4
 80001f0:	20000004 	andcs	r0, r0, r4
 80001f4:	20000008 	andcs	r0, r0, r8
